; Function Attrs: mustprogress nofree norecurse nosync nounwind willreturn memory(read, inaccessiblemem: none) uwtable
define hidden noundef zeroext i1 @_ZNK6Method23can_be_statically_boundE11AccessFlags(ptr nocapture noundef nonnull readonly align 8 dereferenceable(88) %0, i32 %1) local_unnamed_addr #7 align 2 {
  %3 = getelementptr inbounds i8, ptr %0, i64 8
  %4 = load ptr, ptr %3, align 8
  %5 = getelementptr inbounds i8, ptr %4, i64 28
  %6 = load i32, ptr %5, align 4
  %7 = and i32 %6, 64
  %.not.i = icmp eq i32 %7, 0
  br i1 %.not.i, label %8, label %_ZNK6Method15is_final_methodE11AccessFlags.exit.thread

8:                                                ; preds = %2
  %9 = getelementptr inbounds i8, ptr %4, i64 8
  %10 = load ptr, ptr %9, align 8
  %11 = getelementptr inbounds i8, ptr %10, i64 24
  %12 = load ptr, ptr %11, align 8
  %.not.i.i = icmp eq ptr %12, null
  br i1 %.not.i.i, label %_ZNK6Method17is_default_methodEv.exit.i, label %13

13:                                               ; preds = %8
  %14 = getelementptr inbounds i8, ptr %12, i64 164
  %15 = load i32, ptr %14, align 4
  %16 = and i32 %15, 512
  %.not4.i.i = icmp eq i32 %16, 0
  br i1 %.not4.i.i, label %_ZNK6Method17is_default_methodEv.exit.i, label %17

17:                                               ; preds = %13
  %18 = getelementptr inbounds i8, ptr %0, i64 40
  %.sroa.0.0.copyload.i.i.i.i = load i32, ptr %18, align 8
  %19 = and i32 %.sroa.0.0.copyload.i.i.i.i, 1026
  %or.cond.not.i.i = icmp eq i32 %19, 0
  br i1 %or.cond.not.i.i, label %_ZNK6Method15is_final_methodE11AccessFlags.exit.thread, label %_ZNK6Method17is_default_methodEv.exit.i

_ZNK6Method17is_default_methodEv.exit.i:          ; preds = %17, %13, %8
  %20 = getelementptr inbounds i8, ptr %0, i64 40
  %.sroa.0.0.copyload.i.i.i = load i32, ptr %20, align 8
  %21 = and i32 %.sroa.0.0.copyload.i.i.i, 16
  %.not3.i = icmp ne i32 %21, 0
  %22 = and i32 %1, 16
  %23 = icmp ne i32 %22, 0
  %or.cond = select i1 %.not3.i, i1 true, i1 %23
  br i1 %or.cond, label %_ZNK6Method15is_final_methodE11AccessFlags.exit.thread4, label %_ZNK6Method15is_final_methodE11AccessFlags.exit.thread

_ZNK6Method15is_final_methodE11AccessFlags.exit.thread: ; preds = %_ZNK6Method17is_default_methodEv.exit.i, %17, %2
  %24 = getelementptr inbounds i8, ptr %0, i64 44
  %25 = load i32, ptr %24, align 4
  %26 = icmp eq i32 %25, -2
  br label %_ZNK6Method15is_final_methodE11AccessFlags.exit.thread4

_ZNK6Method15is_final_methodE11AccessFlags.exit.thread4: ; preds = %_ZNK6Method17is_default_methodEv.exit.i, %_ZNK6Method15is_final_methodE11AccessFlags.exit.thread
  %.0 = phi i1 [ %26, %_ZNK6Method15is_final_methodE11AccessFlags.exit.thread ], [ true, %_ZNK6Method17is_default_methodEv.exit.i ]
  ret i1 %.0
}